target datalayout = "e-m:e-p270:32:32-p271:32:32-p272:64:64-i64:64-i128:128-f80:128-n8:16:32:64-S128"
target triple = "x86_64-pc-linux-gnu"

%"class.llvm::SmallVectorBase" = type { ptr, i32, i32 }
%"class.llvm::SUnit" = type <{ %union.anon, ptr, ptr, ptr, ptr, %"class.llvm::SmallVector.88", %"class.llvm::SmallVector.88", i32, i32, i32, i32, i32, i32, i32, i32, i32, i32, i32, i32, i16, i16, i16, i8, i8 }>
%union.anon = type { ptr }
%"class.llvm::SmallVector.88" = type { %"class.llvm::SmallVectorImpl.89", %"struct.llvm::SmallVectorStorage.92" }
%"class.llvm::SmallVectorImpl.89" = type { %"class.llvm::SmallVectorTemplateBase.90" }
%"class.llvm::SmallVectorTemplateBase.90" = type { %"class.llvm::SmallVectorTemplateCommon.91" }
%"class.llvm::SmallVectorTemplateCommon.91" = type { %"class.llvm::SmallVectorBase" }
%"struct.llvm::SmallVectorStorage.92" = type { [64 x i8] }
%"class.llvm::SmallVector.93" = type { %"class.llvm::SmallVectorImpl.94", %"struct.llvm::SmallVectorStorage.97" }
%"class.llvm::SmallVectorImpl.94" = type { %"class.llvm::SmallVectorTemplateBase.95" }
%"class.llvm::SmallVectorTemplateBase.95" = type { %"class.llvm::SmallVectorTemplateCommon.96" }
%"class.llvm::SmallVectorTemplateCommon.96" = type { %"class.llvm::SmallVectorBase" }
%"struct.llvm::SmallVectorStorage.97" = type { [64 x i8] }
%"class.std::vector.243" = type { %"struct.std::_Vector_base.244" }
%"struct.std::_Vector_base.244" = type { %"struct.std::_Vector_base<unsigned int, std::allocator<unsigned int>>::_Vector_impl" }
%"struct.std::_Vector_base<unsigned int, std::allocator<unsigned int>>::_Vector_impl" = type { %"struct.std::_Vector_base<unsigned int, std::allocator<unsigned int>>::_Vector_impl_data" }
%"struct.std::_Vector_base<unsigned int, std::allocator<unsigned int>>::_Vector_impl_data" = type { ptr, ptr, ptr }
%"class.llvm::PressureChange" = type { i16, i16 }
%"class.std::__cxx11::basic_string" = type { %"struct.std::__cxx11::basic_string<char>::_Alloc_hider", i64, %union.anon.318 }
%"struct.std::__cxx11::basic_string<char>::_Alloc_hider" = type { ptr }
%union.anon.318 = type { i64, [8 x i8] }
%"class.llvm::SchedBoundary" = type { ptr, ptr, ptr, %"class.llvm::ReadyQueue", %"class.llvm::ReadyQueue", ptr, i8, i32, i32, i32, i32, i32, i32, %"class.llvm::SmallVector.93", i32, i32, i8, %"class.std::map", %"class.std::vector.243", %"class.llvm::SmallVector.93", %"class.llvm::SmallVector.490" }
%"class.llvm::ReadyQueue" = type { i32, %"class.std::__cxx11::basic_string", %"class.std::vector.482" }
%"class.std::vector.482" = type { %"struct.std::_Vector_base.483" }
%"struct.std::_Vector_base.483" = type { %"struct.std::_Vector_base<llvm::SUnit *, std::allocator<llvm::SUnit *>>::_Vector_impl" }
%"struct.std::_Vector_base<llvm::SUnit *, std::allocator<llvm::SUnit *>>::_Vector_impl" = type { %"struct.std::_Vector_base<llvm::SUnit *, std::allocator<llvm::SUnit *>>::_Vector_impl_data" }
%"struct.std::_Vector_base<llvm::SUnit *, std::allocator<llvm::SUnit *>>::_Vector_impl_data" = type { ptr, ptr, ptr }
%"class.std::map" = type { %"class.std::_Rb_tree" }
%"class.std::_Rb_tree" = type { %"struct.std::_Rb_tree<unsigned int, std::pair<const unsigned int, llvm::ResourceSegments>, std::_Select1st<std::pair<const unsigned int, llvm::ResourceSegments>>, std::less<unsigned int>>::_Rb_tree_impl" }
%"struct.std::_Rb_tree<unsigned int, std::pair<const unsigned int, llvm::ResourceSegments>, std::_Select1st<std::pair<const unsigned int, llvm::ResourceSegments>>, std::less<unsigned int>>::_Rb_tree_impl" = type { [8 x i8], %"struct.std::_Rb_tree_header" }
%"struct.std::_Rb_tree_header" = type { %"struct.std::_Rb_tree_node_base", i64 }
%"struct.std::_Rb_tree_node_base" = type { i32, ptr, ptr, ptr }
%"class.llvm::SmallVector.490" = type { %"class.llvm::SmallVectorImpl.491", %"struct.llvm::SmallVectorStorage.494" }
%"class.llvm::SmallVectorImpl.491" = type { %"class.llvm::SmallVectorTemplateBase.492" }
%"class.llvm::SmallVectorTemplateBase.492" = type { %"class.llvm::SmallVectorTemplateCommon.493" }
%"class.llvm::SmallVectorTemplateCommon.493" = type { %"class.llvm::SmallVectorBase" }
%"struct.llvm::SmallVectorStorage.494" = type { [256 x i8] }
%"struct.llvm::SchedRemainder" = type { i32, i32, i32, i8, %"class.llvm::SmallVector.93" }
%"struct.llvm::GenericSchedulerBase::SchedCandidate" = type { %"struct.llvm::GenericSchedulerBase::CandPolicy", ptr, i8, i8, %"struct.llvm::RegPressureDelta", %"struct.llvm::GenericSchedulerBase::SchedResourceDelta" }
%"struct.llvm::GenericSchedulerBase::CandPolicy" = type { i8, i32, i32 }
%"struct.llvm::RegPressureDelta" = type { %"class.llvm::PressureChange", %"class.llvm::PressureChange", %"class.llvm::PressureChange" }
%"struct.llvm::GenericSchedulerBase::SchedResourceDelta" = type { i32, i32 }
%"class.llvm::GenericSchedulerBase" = type { %"class.llvm::MachineSchedStrategy", ptr, ptr, ptr, %"struct.llvm::SchedRemainder" }
%"class.llvm::MachineSchedStrategy" = type { ptr }
%"class.llvm::GenericScheduler" = type { %"class.llvm::GenericSchedulerBase", ptr, %"struct.llvm::MachineSchedPolicy", %"class.llvm::SchedBoundary", %"class.llvm::SchedBoundary", %"struct.llvm::GenericSchedulerBase::SchedCandidate", %"struct.llvm::GenericSchedulerBase::SchedCandidate" }
%"struct.llvm::MachineSchedPolicy" = type { i8, i8, i8, i8, i8, i8 }

; Function Attrs: mustprogress nounwind uwtable
define linkonce_odr noundef nonnull align 4 dereferenceable(4) ptr @_ZSt3maxIjERKT_S2_S2_(ptr noundef nonnull align 4 dereferenceable(4) %0, ptr noundef nonnull align 4 dereferenceable(4) %1) #1 comdat {
  %3 = alloca ptr, align 8
  %4 = alloca ptr, align 8
  %5 = alloca ptr, align 8
  store ptr %0, ptr %4, align 8
  store ptr %1, ptr %5, align 8
  %6 = load ptr, ptr %4, align 8
  %7 = load i32, ptr %6, align 4
  %8 = load ptr, ptr %5, align 8
  %9 = load i32, ptr %8, align 4
  %10 = icmp ult i32 %7, %9
  br i1 %10, label %11, label %13

11:                                               ; preds = %2
  %12 = load ptr, ptr %5, align 8
  store ptr %12, ptr %3, align 8
  br label %15

13:                                               ; preds = %2
  %14 = load ptr, ptr %4, align 8
  store ptr %14, ptr %3, align 8
  br label %15

15:                                               ; preds = %13, %11
  %16 = load ptr, ptr %3, align 8
  ret ptr %16
}

; Function Attrs: mustprogress nounwind uwtable
define linkonce_odr hidden noundef i32 @_ZNK4llvm13SchedBoundary12getCurrCycleEv(ptr noundef nonnull align 8 dereferenceable(712) %0) #1 comdat align 2 {
  %2 = alloca ptr, align 8
  store ptr %0, ptr %2, align 8
  %3 = load ptr, ptr %2, align 8
  %4 = getelementptr inbounds nuw %"class.llvm::SchedBoundary", ptr %3, i32 0, i32 7
  %5 = load i32, ptr %4, align 4
  ret i32 %5
}

; Function Attrs: mustprogress nounwind uwtable
define dso_local void @_ZN4llvm16GenericScheduler9schedNodeEPNS_5SUnitEb(ptr noundef nonnull align 8 dereferenceable(1664) %0, ptr noundef %1, i1 noundef zeroext %2) unnamed_addr #1 align 2 {
  %4 = alloca ptr, align 8
  %5 = alloca ptr, align 8
  %6 = alloca i8, align 1
  %7 = alloca i32, align 4
  %8 = alloca i32, align 4
  store ptr %0, ptr %4, align 8
  store ptr %1, ptr %5, align 8
  %9 = zext i1 %2 to i8
  store i8 %9, ptr %6, align 1
  %10 = load ptr, ptr %4, align 8
  %11 = load i8, ptr %6, align 1
  %12 = trunc i8 %11 to i1
  br i1 %12, label %13, label %33

13:                                               ; preds = %3
  %14 = load ptr, ptr %5, align 8
  %15 = getelementptr inbounds nuw %"class.llvm::SUnit", ptr %14, i32 0, i32 15
  %16 = getelementptr inbounds nuw %"class.llvm::GenericScheduler", ptr %10, i32 0, i32 3
  %17 = call noundef i32 @_ZNK4llvm13SchedBoundary12getCurrCycleEv(ptr noundef nonnull align 8 dereferenceable(712) %16)
  store i32 %17, ptr %7, align 4
  %18 = call noundef nonnull align 4 dereferenceable(4) ptr @_ZSt3maxIjERKT_S2_S2_(ptr noundef nonnull align 4 dereferenceable(4) %15, ptr noundef nonnull align 4 dereferenceable(4) %7)
  %19 = load i32, ptr %18, align 4
  %20 = load ptr, ptr %5, align 8
  %21 = getelementptr inbounds nuw %"class.llvm::SUnit", ptr %20, i32 0, i32 15
  store i32 %19, ptr %21, align 8
  %22 = getelementptr inbounds nuw %"class.llvm::GenericScheduler", ptr %10, i32 0, i32 3
  %23 = load ptr, ptr %5, align 8
  call void @_ZN4llvm13SchedBoundary8bumpNodeEPNS_5SUnitE(ptr noundef nonnull align 8 dereferenceable(712) %22, ptr noundef %23)
  %24 = load ptr, ptr %5, align 8
  %25 = getelementptr inbounds nuw %"class.llvm::SUnit", ptr %24, i32 0, i32 19
  %26 = load i16, ptr %25, align 8
  %27 = lshr i16 %26, 5
  %28 = and i16 %27, 1
  %29 = trunc i16 %28 to i1
  br i1 %29, label %30, label %32

30:                                               ; preds = %13
  %31 = load ptr, ptr %5, align 8
  call void @_ZN4llvm16GenericScheduler17reschedulePhysRegEPNS_5SUnitEb(ptr noundef nonnull align 8 dereferenceable(1664) %10, ptr noundef %31, i1 noundef zeroext true)
  br label %32

32:                                               ; preds = %30, %13
  br label %53

33:                                               ; preds = %3
  %34 = load ptr, ptr %5, align 8
  %35 = getelementptr inbounds nuw %"class.llvm::SUnit", ptr %34, i32 0, i32 16
  %36 = getelementptr inbounds nuw %"class.llvm::GenericScheduler", ptr %10, i32 0, i32 4
  %37 = call noundef i32 @_ZNK4llvm13SchedBoundary12getCurrCycleEv(ptr noundef nonnull align 8 dereferenceable(712) %36)
  store i32 %37, ptr %8, align 4
  %38 = call noundef nonnull align 4 dereferenceable(4) ptr @_ZSt3maxIjERKT_S2_S2_(ptr noundef nonnull align 4 dereferenceable(4) %35, ptr noundef nonnull align 4 dereferenceable(4) %8)
  %39 = load i32, ptr %38, align 4
  %40 = load ptr, ptr %5, align 8
  %41 = getelementptr inbounds nuw %"class.llvm::SUnit", ptr %40, i32 0, i32 16
  store i32 %39, ptr %41, align 4
  %42 = getelementptr inbounds nuw %"class.llvm::GenericScheduler", ptr %10, i32 0, i32 4
  %43 = load ptr, ptr %5, align 8
  call void @_ZN4llvm13SchedBoundary8bumpNodeEPNS_5SUnitE(ptr noundef nonnull align 8 dereferenceable(712) %42, ptr noundef %43)
  %44 = load ptr, ptr %5, align 8
  %45 = getelementptr inbounds nuw %"class.llvm::SUnit", ptr %44, i32 0, i32 19
  %46 = load i16, ptr %45, align 8
  %47 = lshr i16 %46, 6
  %48 = and i16 %47, 1
  %49 = trunc i16 %48 to i1
  br i1 %49, label %50, label %52

50:                                               ; preds = %33
  %51 = load ptr, ptr %5, align 8
  call void @_ZN4llvm16GenericScheduler17reschedulePhysRegEPNS_5SUnitEb(ptr noundef nonnull align 8 dereferenceable(1664) %10, ptr noundef %51, i1 noundef zeroext false)
  br label %52

52:                                               ; preds = %50, %33
  br label %53

53:                                               ; preds = %52, %32
  ret void
}