; Function Attrs: mustprogress nounwind uwtable
define dso_local void @_ZN4llvm16GenericScheduler9schedNodeEPNS_5SUnitEb(ptr noundef nonnull align 8 dereferenceable(1664) %0, ptr noundef %1, i1 noundef zeroext %2) unnamed_addr #0 align 2 {
  %4 = getelementptr inbounds nuw i8, ptr %1, i64 248
  br i1 %2, label %5, label %47

5:                                                ; preds = %3
  %6 = getelementptr inbounds nuw i8, ptr %1, i64 232
  %7 = getelementptr inbounds nuw i8, ptr %0, i64 144
  %8 = getelementptr inbounds nuw i8, ptr %0, i64 308
  %9 = load i32, ptr %8, align 4
  %10 = load i32, ptr %6, align 4
  %.sroa.speculated15 = tail call i32 @llvm.umax.i32(i32 %10, i32 %9)
  store i32 %.sroa.speculated15, ptr %6, align 8
  tail call void @_ZN4llvm13SchedBoundary8bumpNodeEPNS_5SUnitE(ptr noundef nonnull align 8 dereferenceable(712) %7, ptr noundef %1)
  %11 = load i16, ptr %4, align 8
  %12 = and i16 %11, 32
  %.not11 = icmp eq i16 %12, 0
  br i1 %.not11, label %_ZN4llvm16GenericScheduler17reschedulePhysRegEPNS_5SUnitEb.exit, label %13

13:                                               ; preds = %5
  %14 = load ptr, ptr %1, align 8
  %15 = getelementptr inbounds nuw i8, ptr %1, i64 40
  %16 = load ptr, ptr %15, align 8
  %17 = tail call noundef i64 @_ZNK4llvm15SmallVectorBaseIjE4sizeEv(ptr noundef nonnull align 8 dereferenceable(16) %15) #28
  %18 = getelementptr inbounds %"class.llvm::SDep", ptr %16, i64 %17
  %.not25.i = icmp eq i64 %17, 0
  br i1 %.not25.i, label %_ZN4llvm16GenericScheduler17reschedulePhysRegEPNS_5SUnitEb.exit, label %.lr.ph.i

.lr.ph.i:                                         ; preds = %13
  %19 = getelementptr inbounds nuw i8, ptr %0, i64 128
  br label %.lr.ph.split.us.i

.lr.ph.split.us.i:                                ; preds = %45, %.lr.ph.i
  %.026.us.i = phi ptr [ %46, %45 ], [ %16, %.lr.ph.i ]
  %.0.copyload.i.i.i.i.us.i = load i64, ptr %.026.us.i, align 8
  %20 = and i64 %.0.copyload.i.i.i.i.us.i, 6
  %.not22.us.i = icmp eq i64 %20, 0
  br i1 %.not22.us.i, label %21, label %45

21:                                               ; preds = %.lr.ph.split.us.i
  %22 = getelementptr inbounds nuw i8, ptr %.026.us.i, i64 8
  %23 = load i32, ptr %22, align 8
  %24 = add i32 %23, -1
  %25 = icmp ult i32 %24, 1073741823
  br i1 %25, label %26, label %45

26:                                               ; preds = %21
  %27 = and i64 %.0.copyload.i.i.i.i.us.i, -8
  %28 = inttoptr i64 %27 to ptr
  %29 = getelementptr inbounds nuw i8, ptr %28, i64 120
  %30 = tail call noundef i64 @_ZNK4llvm15SmallVectorBaseIjE4sizeEv(ptr noundef nonnull align 8 dereferenceable(16) %29) #28
  %31 = icmp ugt i64 %30, 1
  br i1 %31, label %45, label %32

32:                                               ; preds = %26
  %33 = load ptr, ptr %28, align 8
  %34 = getelementptr inbounds nuw i8, ptr %33, i64 68
  %35 = load i16, ptr %34, align 4
  %36 = icmp eq i16 %35, 19
  br i1 %36, label %43, label %37

37:                                               ; preds = %32
  %38 = getelementptr inbounds nuw i8, ptr %33, i64 16
  %39 = load ptr, ptr %38, align 8
  %40 = getelementptr inbounds nuw i8, ptr %39, i64 16
  %41 = load i64, ptr %40, align 8
  %42 = and i64 %41, 8192
  %.not24.us.i = icmp eq i64 %42, 0
  br i1 %.not24.us.i, label %45, label %43

43:                                               ; preds = %37, %32
  %44 = load ptr, ptr %19, align 8
  tail call void @_ZN4llvm13ScheduleDAGMI15moveInstructionEPNS_12MachineInstrENS_26MachineInstrBundleIteratorIS1_Lb0EEE(ptr noundef nonnull align 8 dereferenceable(2704) %44, ptr noundef nonnull %33, ptr %14)
  br label %45

45:                                               ; preds = %43, %37, %26, %21, %.lr.ph.split.us.i
  %46 = getelementptr inbounds nuw i8, ptr %.026.us.i, i64 16
  %.not.us.i = icmp eq ptr %46, %18
  br i1 %.not.us.i, label %_ZN4llvm16GenericScheduler17reschedulePhysRegEPNS_5SUnitEb.exit, label %.lr.ph.split.us.i

47:                                               ; preds = %3
  %48 = getelementptr inbounds nuw i8, ptr %1, i64 236
  %49 = getelementptr inbounds nuw i8, ptr %0, i64 856
  %50 = getelementptr inbounds nuw i8, ptr %0, i64 1020
  %51 = load i32, ptr %50, align 4
  %52 = load i32, ptr %48, align 4
  %.sroa.speculated = tail call i32 @llvm.umax.i32(i32 %52, i32 %51)
  store i32 %.sroa.speculated, ptr %48, align 4
  tail call void @_ZN4llvm13SchedBoundary8bumpNodeEPNS_5SUnitE(ptr noundef nonnull align 8 dereferenceable(712) %49, ptr noundef %1)
  %53 = load i16, ptr %4, align 8
  %54 = and i16 %53, 64
  %.not = icmp eq i16 %54, 0
  br i1 %.not, label %_ZN4llvm16GenericScheduler17reschedulePhysRegEPNS_5SUnitEb.exit, label %55

55:                                               ; preds = %47
  tail call void @_ZN4llvm16GenericScheduler17reschedulePhysRegEPNS_5SUnitEb(ptr noundef nonnull align 8 dereferenceable(1664) %0, ptr noundef nonnull %1, i1 noundef zeroext false)
  br label %_ZN4llvm16GenericScheduler17reschedulePhysRegEPNS_5SUnitEb.exit

_ZN4llvm16GenericScheduler17reschedulePhysRegEPNS_5SUnitEb.exit: ; preds = %45, %13, %47, %55, %5
  ret void
}